; Function Attrs: mustprogress nounwind uwtable
define void @_ZN3re29PrefilterD2Ev(ptr noundef nonnull align 8 dereferenceable(52) %this) unnamed_addr #3 align 2 personality ptr @__gxx_personality_v0 {
entry:
  %subs_ = getelementptr inbounds i8, ptr %this, i64 8
  %0 = load ptr, ptr %subs_, align 8
  %tobool.not = icmp eq ptr %0, null
  br i1 %tobool.not, label %if.end, label %for.cond.preheader

for.cond.preheader:                               ; preds = %entry
  %_M_finish.i5 = getelementptr inbounds i8, ptr %0, i64 8
  %1 = load ptr, ptr %_M_finish.i5, align 8
  %2 = load ptr, ptr %0, align 8
  %cmp10.not = icmp eq ptr %1, %2
  br i1 %cmp10.not, label %delete.notnull7, label %for.body

for.body:                                         ; preds = %for.cond.preheader, %for.inc
  %3 = phi ptr [ %6, %for.inc ], [ %2, %for.cond.preheader ]
  %4 = phi ptr [ %7, %for.inc ], [ %0, %for.cond.preheader ]
  %i.011 = phi i64 [ %inc, %for.inc ], [ 0, %for.cond.preheader ]
  %add.ptr.i = getelementptr inbounds ptr, ptr %3, i64 %i.011
  %5 = load ptr, ptr %add.ptr.i, align 8
  %isnull = icmp eq ptr %5, null
  br i1 %isnull, label %for.inc, label %delete.notnull

delete.notnull:                                   ; preds = %for.body
  tail call void @_ZN3re29PrefilterD1Ev(ptr noundef nonnull align 8 dereferenceable(52) %5) #16
  tail call void @_ZdlPv(ptr noundef nonnull %5) #18
  %.pre = load ptr, ptr %subs_, align 8
  %.pre15 = load ptr, ptr %.pre, align 8
  br label %for.inc

for.inc:                                          ; preds = %for.body, %delete.notnull
  %6 = phi ptr [ %3, %for.body ], [ %.pre15, %delete.notnull ]
  %7 = phi ptr [ %4, %for.body ], [ %.pre, %delete.notnull ]
  %inc = add nuw i64 %i.011, 1
  %_M_finish.i = getelementptr inbounds i8, ptr %7, i64 8
  %8 = load ptr, ptr %_M_finish.i, align 8
  %sub.ptr.lhs.cast.i = ptrtoint ptr %8 to i64
  %sub.ptr.rhs.cast.i = ptrtoint ptr %6 to i64
  %sub.ptr.sub.i = sub i64 %sub.ptr.lhs.cast.i, %sub.ptr.rhs.cast.i
  %sub.ptr.div.i = ashr exact i64 %sub.ptr.sub.i, 3
  %cmp = icmp ult i64 %inc, %sub.ptr.div.i
  br i1 %cmp, label %for.body, label %delete.notnull7, !llvm.loop !4

delete.notnull7:                                  ; preds = %for.inc, %for.cond.preheader
  %.lcssa4 = phi ptr [ %0, %for.cond.preheader ], [ %7, %for.inc ]
  %.lcssa = phi ptr [ %1, %for.cond.preheader ], [ %6, %for.inc ]
  %tobool.not.i.i.i = icmp eq ptr %.lcssa, null
  br i1 %tobool.not.i.i.i, label %delete.end8, label %if.then.i.i.i

if.then.i.i.i:                                    ; preds = %delete.notnull7
  tail call void @_ZdlPv(ptr noundef nonnull %.lcssa) #18
  br label %delete.end8

delete.end8:                                      ; preds = %if.then.i.i.i, %delete.notnull7
  tail call void @_ZdlPv(ptr noundef nonnull %.lcssa4) #18
  store ptr null, ptr %subs_, align 8
  br label %if.end

if.end:                                           ; preds = %delete.end8, %entry
  %atom_ = getelementptr inbounds i8, ptr %this, i64 16
  tail call void @_ZNSt7__cxx1112basic_stringIcSt11char_traitsIcESaIcEED1Ev(ptr noundef nonnull align 8 dereferenceable(32) %atom_) #16
  ret void
}